target datalayout = "e-m:e-p270:32:32-p271:32:32-p272:64:64-i64:64-i128:128-f80:128-n8:16:32:64-S128"
target triple = "x86_64-pc-linux-gnu"

%struct._mq_parm_t = type { i32, i32, i32, i32, i32, i32, i32, i32, i32, i32, i32, i32, i32, i8, i8, i8, %struct._mq_ccsid_t, %struct._mq_ccsid_t, %struct._mq_ccsid_t, %struct._mq_ccsid_t, %struct._mq_ccsid_t, %struct._mq_ccsid_t, %struct._mq_ccsid_t, [8 x i8], i32, i32, i32 }
%struct._mq_ccsid_t = type { i32, i32 }

@hf_mq_xa_xid_formatid = internal global i32 0, align 4
@hf_mq_xa_xid_glbxid_len = internal global i32 0, align 4
@hf_mq_xa_xid_brq_length = internal global i32 0, align 4
@hf_mq_xa_xid_globalxid = internal global i32 0, align 4
@hf_mq_xa_xid_brq = internal global i32 0, align 4
@ett_mq_xa_xid = internal global i32 0, align 4
@.str.1897 = private unnamed_addr constant [4 x i8] c"Xid\00", align 1

; Function Attrs: null_pointer_is_valid sspstrong uwtable
define internal i32 @dissect_mq_xid(ptr noundef %0, ptr noundef %1, ptr noundef %2, i32 noundef %3) #0 {
  %5 = alloca ptr, align 8
  %6 = alloca ptr, align 8
  %7 = alloca ptr, align 8
  %8 = alloca i32, align 4
  %9 = alloca i32, align 4
  %10 = alloca i8, align 1
  %11 = alloca i8, align 1
  %12 = alloca ptr, align 8
  store ptr %0, ptr %5, align 8
  store ptr %1, ptr %6, align 8
  store ptr %2, ptr %7, align 8
  store i32 %3, ptr %8, align 4
  call void @llvm.lifetime.start.p0(i64 4, ptr %9) #9
  store i32 0, ptr %9, align 4
  %13 = load ptr, ptr %5, align 8
  %14 = load i32, ptr %8, align 4
  %15 = call i32 @tvb_reported_length_remaining(ptr noundef %13, i32 noundef %14)
  %16 = icmp sge i32 %15, 6
  br i1 %16, label %17, label %104

17:                                               ; preds = %4
  call void @llvm.lifetime.start.p0(i64 1, ptr %10) #9
  store i8 0, ptr %10, align 1
  call void @llvm.lifetime.start.p0(i64 1, ptr %11) #9
  store i8 0, ptr %11, align 1
  %18 = load ptr, ptr %5, align 8
  %19 = load i32, ptr %8, align 4
  %20 = add i32 %19, 4
  %21 = call zeroext i8 @tvb_get_uint8(ptr noundef %18, i32 noundef %20)
  store i8 %21, ptr %10, align 1
  %22 = load ptr, ptr %5, align 8
  %23 = load i32, ptr %8, align 4
  %24 = add i32 %23, 5
  %25 = call zeroext i8 @tvb_get_uint8(ptr noundef %22, i32 noundef %24)
  store i8 %25, ptr %11, align 1
  %26 = load i8, ptr %10, align 1
  %27 = zext i8 %26 to i32
  %28 = add i32 6, %27
  %29 = load i8, ptr %11, align 1
  %30 = zext i8 %29 to i32
  %31 = add i32 %28, %30
  store i32 %31, ptr %9, align 4
  %32 = load ptr, ptr %5, align 8
  %33 = load i32, ptr %8, align 4
  %34 = call i32 @tvb_reported_length_remaining(ptr noundef %32, i32 noundef %33)
  %35 = load i32, ptr %9, align 4
  %36 = icmp sge i32 %34, %35
  br i1 %36, label %37, label %102

37:                                               ; preds = %17
  call void @llvm.lifetime.start.p0(i64 8, ptr %12) #9
  %38 = load ptr, ptr %6, align 8
  %39 = load ptr, ptr %5, align 8
  %40 = load i32, ptr %8, align 4
  %41 = load i32, ptr %9, align 4
  %42 = load i32, ptr @ett_mq_xa_xid, align 4
  %43 = call ptr @proto_tree_add_subtree(ptr noundef %38, ptr noundef %39, i32 noundef %40, i32 noundef %41, i32 noundef %42, ptr noundef null, ptr noundef @.str.1897)
  store ptr %43, ptr %12, align 8
  %44 = load ptr, ptr %12, align 8
  %45 = load i32, ptr @hf_mq_xa_xid_formatid, align 4
  %46 = load ptr, ptr %5, align 8
  %47 = load i32, ptr %8, align 4
  %48 = load ptr, ptr %7, align 8
  %49 = getelementptr inbounds nuw %struct._mq_parm_t, ptr %48, i32 0, i32 3
  %50 = load i32, ptr %49, align 4
  %51 = call ptr @proto_tree_add_item(ptr noundef %44, i32 noundef %45, ptr noundef %46, i32 noundef %47, i32 noundef 4, i32 noundef %50)
  %52 = load ptr, ptr %12, align 8
  %53 = load i32, ptr @hf_mq_xa_xid_glbxid_len, align 4
  %54 = load ptr, ptr %5, align 8
  %55 = load i32, ptr %8, align 4
  %56 = add i32 %55, 4
  %57 = load ptr, ptr %7, align 8
  %58 = getelementptr inbounds nuw %struct._mq_parm_t, ptr %57, i32 0, i32 3
  %59 = load i32, ptr %58, align 4
  %60 = call ptr @proto_tree_add_item(ptr noundef %52, i32 noundef %53, ptr noundef %54, i32 noundef %56, i32 noundef 1, i32 noundef %59)
  %61 = load ptr, ptr %12, align 8
  %62 = load i32, ptr @hf_mq_xa_xid_brq_length, align 4
  %63 = load ptr, ptr %5, align 8
  %64 = load i32, ptr %8, align 4
  %65 = add i32 %64, 5
  %66 = load ptr, ptr %7, align 8
  %67 = getelementptr inbounds nuw %struct._mq_parm_t, ptr %66, i32 0, i32 3
  %68 = load i32, ptr %67, align 4
  %69 = call ptr @proto_tree_add_item(ptr noundef %61, i32 noundef %62, ptr noundef %63, i32 noundef %65, i32 noundef 1, i32 noundef %68)
  %70 = load ptr, ptr %12, align 8
  %71 = load i32, ptr @hf_mq_xa_xid_globalxid, align 4
  %72 = load ptr, ptr %5, align 8
  %73 = load i32, ptr %8, align 4
  %74 = add i32 %73, 6
  %75 = load i8, ptr %10, align 1
  %76 = zext i8 %75 to i32
  %77 = call ptr @proto_tree_add_item(ptr noundef %70, i32 noundef %71, ptr noundef %72, i32 noundef %74, i32 noundef %76, i32 noundef 0)
  %78 = load ptr, ptr %12, align 8
  %79 = load i32, ptr @hf_mq_xa_xid_brq, align 4
  %80 = load ptr, ptr %5, align 8
  %81 = load i32, ptr %8, align 4
  %82 = add i32 %81, 6
  %83 = load i8, ptr %10, align 1
  %84 = zext i8 %83 to i32
  %85 = add i32 %82, %84
  %86 = load i8, ptr %11, align 1
  %87 = zext i8 %86 to i32
  %88 = call ptr @proto_tree_add_item(ptr noundef %78, i32 noundef %79, ptr noundef %80, i32 noundef %85, i32 noundef %87, i32 noundef 0)
  %89 = load i32, ptr %9, align 4
  %90 = srem i32 %89, 4
  %91 = sub i32 4, %90
  %92 = srem i32 %91, 4
  %93 = load i32, ptr %9, align 4
  %94 = add i32 %93, %92
  store i32 %94, ptr %9, align 4
  %95 = load ptr, ptr %5, align 8
  %96 = load i32, ptr %8, align 4
  %97 = call i32 @tvb_reported_length_remaining(ptr noundef %95, i32 noundef %96)
  %98 = load i32, ptr %9, align 4
  %99 = icmp slt i32 %97, %98
  br i1 %99, label %100, label %101

100:                                              ; preds = %37
  store i32 0, ptr %9, align 4
  br label %101

101:                                              ; preds = %100, %37
  call void @llvm.lifetime.end.p0(i64 8, ptr %12) #9
  br label %103

102:                                              ; preds = %17
  store i32 0, ptr %9, align 4
  br label %103

103:                                              ; preds = %102, %101
  call void @llvm.lifetime.end.p0(i64 1, ptr %11) #9
  call void @llvm.lifetime.end.p0(i64 1, ptr %10) #9
  br label %104

104:                                              ; preds = %103, %4
  %105 = load i32, ptr %9, align 4
  call void @llvm.lifetime.end.p0(i64 4, ptr %9) #9
  ret i32 %105
}