; Function Attrs: null_pointer_is_valid sspstrong uwtable
define internal fastcc range(i32 0, 520) i32 @dissect_mq_xid(ptr noundef %0, ptr noundef %1, ptr noundef readonly captures(none) %2, i32 noundef %3) unnamed_addr #0 {
  %5 = tail call i32 @tvb_reported_length_remaining(ptr noundef %0, i32 noundef %3)
  %6 = icmp sgt i32 %5, 5
  br i1 %6, label %7, label %41

7:                                                ; preds = %4
  %8 = add i32 %3, 4
  %9 = tail call zeroext i8 @tvb_get_uint8(ptr noundef %0, i32 noundef %8)
  %10 = add i32 %3, 5
  %11 = tail call zeroext i8 @tvb_get_uint8(ptr noundef %0, i32 noundef %10)
  %12 = zext i8 %9 to i32
  %13 = add nuw nsw i32 %12, 6
  %14 = zext i8 %11 to i32
  %15 = add nuw nsw i32 %13, %14
  %16 = tail call i32 @tvb_reported_length_remaining(ptr noundef %0, i32 noundef %3)
  %.not = icmp slt i32 %16, %15
  br i1 %.not, label %41, label %17

17:                                               ; preds = %7
  %18 = load i32, ptr @ett_mq_xa_xid, align 4
  %19 = tail call ptr @proto_tree_add_subtree(ptr noundef %1, ptr noundef %0, i32 noundef %3, i32 noundef %15, i32 noundef %18, ptr noundef null, ptr noundef nonnull @.str.1897)
  %20 = load i32, ptr @hf_mq_xa_xid_formatid, align 4
  %21 = getelementptr inbounds nuw i8, ptr %2, i64 12
  %22 = load i32, ptr %21, align 4
  %23 = tail call ptr @proto_tree_add_item(ptr noundef %19, i32 noundef %20, ptr noundef %0, i32 noundef %3, i32 noundef 4, i32 noundef %22)
  %24 = load i32, ptr @hf_mq_xa_xid_glbxid_len, align 4
  %25 = load i32, ptr %21, align 4
  %26 = tail call ptr @proto_tree_add_item(ptr noundef %19, i32 noundef %24, ptr noundef %0, i32 noundef %8, i32 noundef 1, i32 noundef %25)
  %27 = load i32, ptr @hf_mq_xa_xid_brq_length, align 4
  %28 = load i32, ptr %21, align 4
  %29 = tail call ptr @proto_tree_add_item(ptr noundef %19, i32 noundef %27, ptr noundef %0, i32 noundef %10, i32 noundef 1, i32 noundef %28)
  %30 = load i32, ptr @hf_mq_xa_xid_globalxid, align 4
  %31 = add i32 %3, 6
  %32 = tail call ptr @proto_tree_add_item(ptr noundef %19, i32 noundef %30, ptr noundef %0, i32 noundef %31, i32 noundef %12, i32 noundef 0)
  %33 = load i32, ptr @hf_mq_xa_xid_brq, align 4
  %34 = add i32 %31, %12
  %35 = tail call ptr @proto_tree_add_item(ptr noundef %19, i32 noundef %33, ptr noundef %0, i32 noundef %34, i32 noundef %14, i32 noundef 0)
  %36 = sub nsw i32 0, %15
  %37 = and i32 %36, 3
  %38 = add nuw nsw i32 %37, %15
  %39 = tail call i32 @tvb_reported_length_remaining(ptr noundef %0, i32 noundef %3)
  %40 = icmp slt i32 %39, %38
  %spec.store.select = select i1 %40, i32 0, i32 %38
  br label %41

41:                                               ; preds = %17, %7, %4
  %.0 = phi i32 [ 0, %4 ], [ %spec.store.select, %17 ], [ 0, %7 ]
  ret i32 %.0
}